; ModuleID = '47/5567.c'
source_filename = "47/5567.c"
target datalayout = "e-m:e-p270:32:32-p271:32:32-p272:64:64-i64:64-f80:128-n8:16:32:64-S128"
target triple = "x86_64-pc-linux-gnu"

@.str = private unnamed_addr constant [3 x i8] c"%d\00", align 1
@.str.1 = private unnamed_addr constant [4 x i8] c" %d\00", align 1

; Function Attrs: noinline nounwind uwtable
define dso_local void @main() #0 {
  %1 = alloca i32, align 4
  %2 = alloca i32, align 4
  %3 = alloca [128 x i32], align 16
  %4 = alloca i32*, align 8
  %5 = alloca i32*, align 8
  %6 = alloca i32, align 4
  %7 = call i32 (i8*, ...) @__isoc99_scanf(i8* getelementptr inbounds ([3 x i8], [3 x i8]* @.str, i64 0, i64 0), i32* %1)
  %8 = getelementptr inbounds [128 x i32], [128 x i32]* %3, i64 0, i64 0
  store i32* %8, i32** %4, align 8
  store i32 0, i32* %2, align 4
  br label %9

9:                                                ; preds = %17, %0
  %10 = load i32, i32* %2, align 4
  %11 = load i32, i32* %1, align 4
  %12 = icmp slt i32 %10, %11
  br i1 %12, label %13, label %20

13:                                               ; preds = %9
  %14 = load i32*, i32** %4, align 8
  %15 = getelementptr inbounds i32, i32* %14, i32 1
  store i32* %15, i32** %4, align 8
  %16 = call i32 (i8*, ...) @__isoc99_scanf(i8* getelementptr inbounds ([3 x i8], [3 x i8]* @.str, i64 0, i64 0), i32* %14)
  br label %17

17:                                               ; preds = %13
  %18 = load i32, i32* %2, align 4
  %19 = add nsw i32 %18, 1
  store i32 %19, i32* %2, align 4
  br label %9

20:                                               ; preds = %9
  %21 = getelementptr inbounds [128 x i32], [128 x i32]* %3, i64 0, i64 0
  store i32* %21, i32** %4, align 8
  %22 = getelementptr inbounds [128 x i32], [128 x i32]* %3, i64 0, i64 0
  %23 = load i32, i32* %1, align 4
  %24 = sext i32 %23 to i64
  %25 = getelementptr inbounds i32, i32* %22, i64 %24
  %26 = getelementptr inbounds i32, i32* %25, i64 -1
  store i32* %26, i32** %5, align 8
  store i32 0, i32* %2, align 4
  br label %27

27:                                               ; preds = %55, %20
  %28 = load i32, i32* %2, align 4
  %29 = load i32, i32* %1, align 4
  %30 = sdiv i32 %29, 2
  %31 = sub nsw i32 %30, 1
  %32 = icmp sle i32 %28, %31
  br i1 %32, label %33, label %58

33:                                               ; preds = %27
  %34 = load i32*, i32** %4, align 8
  %35 = load i32, i32* %2, align 4
  %36 = sext i32 %35 to i64
  %37 = getelementptr inbounds i32, i32* %34, i64 %36
  %38 = load i32, i32* %37, align 4
  store i32 %38, i32* %6, align 4
  %39 = load i32*, i32** %5, align 8
  %40 = load i32, i32* %2, align 4
  %41 = sext i32 %40 to i64
  %42 = sub i64 0, %41
  %43 = getelementptr inbounds i32, i32* %39, i64 %42
  %44 = load i32, i32* %43, align 4
  %45 = load i32*, i32** %4, align 8
  %46 = load i32, i32* %2, align 4
  %47 = sext i32 %46 to i64
  %48 = getelementptr inbounds i32, i32* %45, i64 %47
  store i32 %44, i32* %48, align 4
  %49 = load i32, i32* %6, align 4
  %50 = load i32*, i32** %5, align 8
  %51 = load i32, i32* %2, align 4
  %52 = sext i32 %51 to i64
  %53 = sub i64 0, %52
  %54 = getelementptr inbounds i32, i32* %50, i64 %53
  store i32 %49, i32* %54, align 4
  br label %55

55:                                               ; preds = %33
  %56 = load i32, i32* %2, align 4
  %57 = add nsw i32 %56, 1
  store i32 %57, i32* %2, align 4
  br label %27

58:                                               ; preds = %27
  %59 = getelementptr inbounds [128 x i32], [128 x i32]* %3, i64 0, i64 0
  store i32* %59, i32** %4, align 8
  %60 = load i32*, i32** %4, align 8
  %61 = load i32, i32* %60, align 4
  %62 = call i32 (i8*, ...) @printf(i8* getelementptr inbounds ([3 x i8], [3 x i8]* @.str, i64 0, i64 0), i32 %61)
  %63 = getelementptr inbounds [128 x i32], [128 x i32]* %3, i64 0, i64 0
  %64 = getelementptr inbounds i32, i32* %63, i64 1
  store i32* %64, i32** %4, align 8
  store i32 1, i32* %2, align 4
  br label %65

65:                                               ; preds = %74, %58
  %66 = load i32, i32* %2, align 4
  %67 = load i32, i32* %1, align 4
  %68 = icmp slt i32 %66, %67
  br i1 %68, label %69, label %77

69:                                               ; preds = %65
  %70 = load i32*, i32** %4, align 8
  %71 = getelementptr inbounds i32, i32* %70, i32 1
  store i32* %71, i32** %4, align 8
  %72 = load i32, i32* %70, align 4
  %73 = call i32 (i8*, ...) @printf(i8* getelementptr inbounds ([4 x i8], [4 x i8]* @.str.1, i64 0, i64 0), i32 %72)
  br label %74

74:                                               ; preds = %69
  %75 = load i32, i32* %2, align 4
  %76 = add nsw i32 %75, 1
  store i32 %76, i32* %2, align 4
  br label %65

77:                                               ; preds = %65
  ret void
}

declare dso_local i32 @__isoc99_scanf(i8*, ...) #1

declare dso_local i32 @printf(i8*, ...) #1


!llvm.module.flags = !{!0}
!llvm.ident = !{!1}

!0 = !{i32 1, !"wchar_size", i32 4}
!1 = !{!"clang version 10.0.0-4ubuntu1 "}
